target datalayout = "e-m:e-p270:32:32-p271:32:32-p272:64:64-i64:64-i128:128-f80:128-n8:16:32:64-S128"
target triple = "x86_64-pc-linux-gnu"

@bio_err = external global ptr, align 8
@.str.126 = private unnamed_addr constant [32 x i8] c"The given KDF \22%s\22 is unknown.\0A\00", align 1

; Function Attrs: nounwind uwtable
define internal ptr @init_ctx(ptr noundef %0, ptr noundef %1, i32 noundef %2, ptr noundef %3, i32 noundef %4, i32 noundef %5, ptr noundef %6, ptr noundef %7, ptr noundef %8, ptr noundef %9, ptr noundef %10, ptr noundef %11) #0 {
  %13 = alloca ptr, align 8
  %14 = alloca ptr, align 8
  %15 = alloca ptr, align 8
  %16 = alloca i32, align 4
  %17 = alloca ptr, align 8
  %18 = alloca i32, align 4
  %19 = alloca i32, align 4
  %20 = alloca ptr, align 8
  %21 = alloca ptr, align 8
  %22 = alloca ptr, align 8
  %23 = alloca ptr, align 8
  %24 = alloca ptr, align 8
  %25 = alloca ptr, align 8
  %26 = alloca ptr, align 8
  %27 = alloca ptr, align 8
  %28 = alloca i32, align 4
  %29 = alloca i32, align 4
  %30 = alloca i32, align 4
  store ptr %0, ptr %14, align 8, !tbaa !21
  store ptr %1, ptr %15, align 8, !tbaa !44
  store i32 %2, ptr %16, align 4, !tbaa !4
  store ptr %3, ptr %17, align 8, !tbaa !15
  store i32 %4, ptr %18, align 4, !tbaa !4
  store i32 %5, ptr %19, align 4, !tbaa !4
  store ptr %6, ptr %20, align 8, !tbaa !19
  store ptr %7, ptr %21, align 8, !tbaa !28
  store ptr %8, ptr %22, align 8, !tbaa !21
  store ptr %9, ptr %23, align 8, !tbaa !21
  store ptr %10, ptr %24, align 8, !tbaa !32
  store ptr %11, ptr %25, align 8, !tbaa !21
  call void @llvm.lifetime.start.p0(i64 8, ptr %26) #7
  store ptr null, ptr %26, align 8, !tbaa !17
  call void @llvm.lifetime.start.p0(i64 8, ptr %27) #7
  store ptr null, ptr %27, align 8, !tbaa !15
  call void @llvm.lifetime.start.p0(i64 4, ptr %28) #7
  store i32 -1, ptr %28, align 4, !tbaa !4
  %31 = load i32, ptr %18, align 4, !tbaa !4
  %32 = icmp ne i32 %31, 0
  br i1 %32, label %33, label %35

33:                                               ; preds = %12
  %34 = load ptr, ptr %17, align 8, !tbaa !15
  store ptr %34, ptr %27, align 8, !tbaa !15
  br label %35

35:                                               ; preds = %33, %12
  %36 = load ptr, ptr %14, align 8, !tbaa !21
  %37 = icmp ne ptr %36, null
  br i1 %37, label %38, label %69

38:                                               ; preds = %35
  call void @llvm.lifetime.start.p0(i64 4, ptr %29) #7
  %39 = load ptr, ptr %14, align 8, !tbaa !21
  %40 = call i32 @OBJ_sn2nid(ptr noundef %39)
  store i32 %40, ptr %29, align 4, !tbaa !4
  %41 = load i32, ptr %29, align 4, !tbaa !4
  %42 = icmp eq i32 %41, 0
  br i1 %42, label %43, label %53

43:                                               ; preds = %38
  %44 = load ptr, ptr %14, align 8, !tbaa !21
  %45 = call i32 @OBJ_ln2nid(ptr noundef %44)
  store i32 %45, ptr %29, align 4, !tbaa !4
  %46 = load i32, ptr %29, align 4, !tbaa !4
  %47 = icmp eq i32 %46, 0
  br i1 %47, label %48, label %52

48:                                               ; preds = %43
  %49 = load ptr, ptr @bio_err, align 8, !tbaa !13
  %50 = load ptr, ptr %14, align 8, !tbaa !21
  %51 = call i32 (ptr, ptr, ...) @BIO_printf(ptr noundef %49, ptr noundef @.str.126, ptr noundef %50)
  store ptr null, ptr %13, align 8
  store i32 1, ptr %30, align 4
  br label %66

52:                                               ; preds = %43
  br label %53

53:                                               ; preds = %52, %38
  %54 = load ptr, ptr %27, align 8, !tbaa !15
  %55 = icmp ne ptr %54, null
  br i1 %55, label %56, label %60

56:                                               ; preds = %53
  %57 = load i32, ptr %29, align 4, !tbaa !4
  %58 = load ptr, ptr %27, align 8, !tbaa !15
  %59 = call ptr @EVP_PKEY_CTX_new_id(i32 noundef %57, ptr noundef %58)
  store ptr %59, ptr %26, align 8, !tbaa !17
  br label %65

60:                                               ; preds = %53
  %61 = load ptr, ptr %24, align 8, !tbaa !32
  %62 = load ptr, ptr %14, align 8, !tbaa !21
  %63 = load ptr, ptr %25, align 8, !tbaa !21
  %64 = call ptr @EVP_PKEY_CTX_new_from_name(ptr noundef %61, ptr noundef %62, ptr noundef %63)
  store ptr %64, ptr %26, align 8, !tbaa !17
  br label %65

65:                                               ; preds = %60, %56
  store i32 0, ptr %30, align 4
  br label %66

66:                                               ; preds = %65, %48
  call void @llvm.lifetime.end.p0(i64 4, ptr %29) #7
  %67 = load i32, ptr %30, align 4
  switch i32 %67, label %169 [
    i32 0, label %68
  ]

68:                                               ; preds = %66
  br label %89

69:                                               ; preds = %35
  %70 = load ptr, ptr %20, align 8, !tbaa !19
  %71 = icmp eq ptr %70, null
  br i1 %71, label %72, label %73

72:                                               ; preds = %69
  store ptr null, ptr %13, align 8
  store i32 1, ptr %30, align 4
  br label %169

73:                                               ; preds = %69
  %74 = load ptr, ptr %20, align 8, !tbaa !19
  %75 = call i32 @EVP_PKEY_get_size(ptr noundef %74)
  %76 = load ptr, ptr %15, align 8, !tbaa !44
  store i32 %75, ptr %76, align 4, !tbaa !4
  %77 = load ptr, ptr %27, align 8, !tbaa !15
  %78 = icmp ne ptr %77, null
  br i1 %78, label %79, label %83

79:                                               ; preds = %73
  %80 = load ptr, ptr %20, align 8, !tbaa !19
  %81 = load ptr, ptr %27, align 8, !tbaa !15
  %82 = call ptr @EVP_PKEY_CTX_new(ptr noundef %80, ptr noundef %81)
  store ptr %82, ptr %26, align 8, !tbaa !17
  br label %88

83:                                               ; preds = %73
  %84 = load ptr, ptr %24, align 8, !tbaa !32
  %85 = load ptr, ptr %20, align 8, !tbaa !19
  %86 = load ptr, ptr %25, align 8, !tbaa !21
  %87 = call ptr @EVP_PKEY_CTX_new_from_pkey(ptr noundef %84, ptr noundef %85, ptr noundef %86)
  store ptr %87, ptr %26, align 8, !tbaa !17
  br label %88

88:                                               ; preds = %83, %79
  br label %89

89:                                               ; preds = %88, %68
  %90 = load ptr, ptr %26, align 8, !tbaa !17
  %91 = icmp eq ptr %90, null
  br i1 %91, label %92, label %93

92:                                               ; preds = %89
  store ptr null, ptr %13, align 8
  store i32 1, ptr %30, align 4
  br label %169

93:                                               ; preds = %89
  %94 = load i32, ptr %19, align 4, !tbaa !4
  %95 = icmp ne i32 %94, 0
  br i1 %95, label %96, label %115

96:                                               ; preds = %93
  %97 = load ptr, ptr %21, align 8, !tbaa !28
  %98 = load ptr, ptr %26, align 8, !tbaa !17
  call void @EVP_MD_CTX_set_pkey_ctx(ptr noundef %97, ptr noundef %98)
  %99 = load i32, ptr %16, align 4, !tbaa !4
  switch i32 %99, label %114 [
    i32 16, label %100
    i32 32, label %107
  ]

100:                                              ; preds = %96
  %101 = load ptr, ptr %21, align 8, !tbaa !28
  %102 = load ptr, ptr %22, align 8, !tbaa !21
  %103 = load ptr, ptr %24, align 8, !tbaa !32
  %104 = load ptr, ptr %25, align 8, !tbaa !21
  %105 = load ptr, ptr %20, align 8, !tbaa !19
  %106 = call i32 @EVP_DigestSignInit_ex(ptr noundef %101, ptr noundef null, ptr noundef %102, ptr noundef %103, ptr noundef %104, ptr noundef %105, ptr noundef null)
  store i32 %106, ptr %28, align 4, !tbaa !4
  br label %114

107:                                              ; preds = %96
  %108 = load ptr, ptr %21, align 8, !tbaa !28
  %109 = load ptr, ptr %22, align 8, !tbaa !21
  %110 = load ptr, ptr %24, align 8, !tbaa !32
  %111 = load ptr, ptr %25, align 8, !tbaa !21
  %112 = load ptr, ptr %20, align 8, !tbaa !19
  %113 = call i32 @EVP_DigestVerifyInit_ex(ptr noundef %108, ptr noundef null, ptr noundef %109, ptr noundef %110, ptr noundef %111, ptr noundef %112, ptr noundef null)
  store i32 %113, ptr %28, align 4, !tbaa !4
  br label %114

114:                                              ; preds = %96, %107, %100
  br label %162

115:                                              ; preds = %93
  %116 = load i32, ptr %16, align 4, !tbaa !4
  switch i32 %116, label %161 [
    i32 16, label %117
    i32 32, label %120
    i32 64, label %123
    i32 512, label %126
    i32 1024, label %129
    i32 2048, label %132
    i32 4096, label %135
    i32 8192, label %148
  ]

117:                                              ; preds = %115
  %118 = load ptr, ptr %26, align 8, !tbaa !17
  %119 = call i32 @EVP_PKEY_sign_init(ptr noundef %118)
  store i32 %119, ptr %28, align 4, !tbaa !4
  br label %161

120:                                              ; preds = %115
  %121 = load ptr, ptr %26, align 8, !tbaa !17
  %122 = call i32 @EVP_PKEY_verify_init(ptr noundef %121)
  store i32 %122, ptr %28, align 4, !tbaa !4
  br label %161

123:                                              ; preds = %115
  %124 = load ptr, ptr %26, align 8, !tbaa !17
  %125 = call i32 @EVP_PKEY_verify_recover_init(ptr noundef %124)
  store i32 %125, ptr %28, align 4, !tbaa !4
  br label %161

126:                                              ; preds = %115
  %127 = load ptr, ptr %26, align 8, !tbaa !17
  %128 = call i32 @EVP_PKEY_encrypt_init(ptr noundef %127)
  store i32 %128, ptr %28, align 4, !tbaa !4
  br label %161

129:                                              ; preds = %115
  %130 = load ptr, ptr %26, align 8, !tbaa !17
  %131 = call i32 @EVP_PKEY_decrypt_init(ptr noundef %130)
  store i32 %131, ptr %28, align 4, !tbaa !4
  br label %161

132:                                              ; preds = %115
  %133 = load ptr, ptr %26, align 8, !tbaa !17
  %134 = call i32 @EVP_PKEY_derive_init(ptr noundef %133)
  store i32 %134, ptr %28, align 4, !tbaa !4
  br label %161

135:                                              ; preds = %115
  %136 = load ptr, ptr %26, align 8, !tbaa !17
  %137 = call i32 @EVP_PKEY_encapsulate_init(ptr noundef %136, ptr noundef null)
  store i32 %137, ptr %28, align 4, !tbaa !4
  %138 = load i32, ptr %28, align 4, !tbaa !4
  %139 = icmp sgt i32 %138, 0
  br i1 %139, label %140, label %147

140:                                              ; preds = %135
  %141 = load ptr, ptr %23, align 8, !tbaa !21
  %142 = icmp ne ptr %141, null
  br i1 %142, label %143, label %147

143:                                              ; preds = %140
  %144 = load ptr, ptr %26, align 8, !tbaa !17
  %145 = load ptr, ptr %23, align 8, !tbaa !21
  %146 = call i32 @EVP_PKEY_CTX_set_kem_op(ptr noundef %144, ptr noundef %145)
  store i32 %146, ptr %28, align 4, !tbaa !4
  br label %147

147:                                              ; preds = %143, %140, %135
  br label %161

148:                                              ; preds = %115
  %149 = load ptr, ptr %26, align 8, !tbaa !17
  %150 = call i32 @EVP_PKEY_decapsulate_init(ptr noundef %149, ptr noundef null)
  store i32 %150, ptr %28, align 4, !tbaa !4
  %151 = load i32, ptr %28, align 4, !tbaa !4
  %152 = icmp sgt i32 %151, 0
  br i1 %152, label %153, label %160

153:                                              ; preds = %148
  %154 = load ptr, ptr %23, align 8, !tbaa !21
  %155 = icmp ne ptr %154, null
  br i1 %155, label %156, label %160

156:                                              ; preds = %153
  %157 = load ptr, ptr %26, align 8, !tbaa !17
  %158 = load ptr, ptr %23, align 8, !tbaa !21
  %159 = call i32 @EVP_PKEY_CTX_set_kem_op(ptr noundef %157, ptr noundef %158)
  store i32 %159, ptr %28, align 4, !tbaa !4
  br label %160

160:                                              ; preds = %156, %153, %148
  br label %161

161:                                              ; preds = %115, %160, %147, %132, %129, %126, %123, %120, %117
  br label %162

162:                                              ; preds = %161, %114
  %163 = load i32, ptr %28, align 4, !tbaa !4
  %164 = icmp sle i32 %163, 0
  br i1 %164, label %165, label %167

165:                                              ; preds = %162
  %166 = load ptr, ptr %26, align 8, !tbaa !17
  call void @EVP_PKEY_CTX_free(ptr noundef %166)
  store ptr null, ptr %26, align 8, !tbaa !17
  br label %167

167:                                              ; preds = %165, %162
  %168 = load ptr, ptr %26, align 8, !tbaa !17
  store ptr %168, ptr %13, align 8
  store i32 1, ptr %30, align 4
  br label %169

169:                                              ; preds = %167, %92, %72, %66
  call void @llvm.lifetime.end.p0(i64 4, ptr %28) #7
  call void @llvm.lifetime.end.p0(i64 8, ptr %27) #7
  call void @llvm.lifetime.end.p0(i64 8, ptr %26) #7
  %170 = load ptr, ptr %13, align 8
  ret ptr %170
}