; Function Attrs: nounwind uwtable
define internal fastcc ptr @init_ctx(ptr noundef %0, ptr noundef nonnull writeonly captures(none) %1, i32 noundef range(i32 16, 8193) %2, ptr noundef %3, i32 noundef range(i32 0, 2) %4, i32 noundef range(i32 0, 2) %5, ptr noundef %6, ptr noundef %7, ptr noundef %8, ptr noundef %9, ptr noundef %10, ptr noundef %11) unnamed_addr #0 {
  %.not = icmp eq i32 %4, 0
  %spec.select = select i1 %.not, ptr null, ptr %3
  %.not74 = icmp eq ptr %0, null
  br i1 %.not74, label %27, label %13

13:                                               ; preds = %12
  %14 = tail call i32 @OBJ_sn2nid(ptr noundef nonnull %0) #7
  %15 = icmp eq i32 %14, 0
  br i1 %15, label %16, label %19

16:                                               ; preds = %13
  %17 = tail call i32 @OBJ_ln2nid(ptr noundef nonnull %0) #7
  %18 = icmp eq i32 %17, 0
  br i1 %18, label %24, label %19

19:                                               ; preds = %16, %13
  %.062 = phi i32 [ %17, %16 ], [ %14, %13 ]
  %.not76 = icmp eq ptr %spec.select, null
  br i1 %.not76, label %22, label %20

20:                                               ; preds = %19
  %21 = tail call ptr @EVP_PKEY_CTX_new_id(i32 noundef %.062, ptr noundef nonnull %spec.select) #7
  br label %.thread

22:                                               ; preds = %19
  %23 = tail call ptr @EVP_PKEY_CTX_new_from_name(ptr noundef %10, ptr noundef nonnull %0, ptr noundef %11) #7
  br label %.thread

24:                                               ; preds = %16
  %25 = load ptr, ptr @bio_err, align 8, !tbaa !15
  %26 = tail call i32 (ptr, ptr, ...) @BIO_printf(ptr noundef %25, ptr noundef nonnull @.str.126, ptr noundef nonnull %0) #7
  br label %69

27:                                               ; preds = %12
  %28 = icmp eq ptr %6, null
  br i1 %28, label %69, label %29

29:                                               ; preds = %27
  %30 = tail call i32 @EVP_PKEY_get_size(ptr noundef nonnull %6) #7
  store i32 %30, ptr %1, align 4, !tbaa !9
  %.not75 = icmp eq ptr %spec.select, null
  br i1 %.not75, label %33, label %31

31:                                               ; preds = %29
  %32 = tail call ptr @EVP_PKEY_CTX_new(ptr noundef nonnull %6, ptr noundef nonnull %spec.select) #7
  br label %.thread

33:                                               ; preds = %29
  %34 = tail call ptr @EVP_PKEY_CTX_new_from_pkey(ptr noundef %10, ptr noundef nonnull %6, ptr noundef %11) #7
  br label %.thread

.thread:                                          ; preds = %20, %22, %31, %33
  %.2 = phi ptr [ %32, %31 ], [ %34, %33 ], [ %23, %22 ], [ %21, %20 ]
  %35 = icmp eq ptr %.2, null
  br i1 %35, label %69, label %36

36:                                               ; preds = %.thread
  %.not77 = icmp eq i32 %5, 0
  br i1 %.not77, label %42, label %37

37:                                               ; preds = %36
  tail call void @EVP_MD_CTX_set_pkey_ctx(ptr noundef %7, ptr noundef nonnull %.2) #7
  switch i32 %2, label %.thread81 [
    i32 16, label %38
    i32 32, label %40
  ]

38:                                               ; preds = %37
  %39 = tail call i32 @EVP_DigestSignInit_ex(ptr noundef %7, ptr noundef null, ptr noundef %8, ptr noundef %10, ptr noundef %11, ptr noundef %6, ptr noundef null) #7
  br label %67

40:                                               ; preds = %37
  %41 = tail call i32 @EVP_DigestVerifyInit_ex(ptr noundef %7, ptr noundef null, ptr noundef %8, ptr noundef %10, ptr noundef %11, ptr noundef %6, ptr noundef null) #7
  br label %67

42:                                               ; preds = %36
  switch i32 %2, label %.thread81 [
    i32 16, label %43
    i32 32, label %45
    i32 64, label %47
    i32 512, label %49
    i32 1024, label %51
    i32 2048, label %53
    i32 4096, label %55
    i32 8192, label %61
  ]

43:                                               ; preds = %42
  %44 = tail call i32 @EVP_PKEY_sign_init(ptr noundef nonnull %.2) #7
  br label %67

45:                                               ; preds = %42
  %46 = tail call i32 @EVP_PKEY_verify_init(ptr noundef nonnull %.2) #7
  br label %67

47:                                               ; preds = %42
  %48 = tail call i32 @EVP_PKEY_verify_recover_init(ptr noundef nonnull %.2) #7
  br label %67

49:                                               ; preds = %42
  %50 = tail call i32 @EVP_PKEY_encrypt_init(ptr noundef nonnull %.2) #7
  br label %67

51:                                               ; preds = %42
  %52 = tail call i32 @EVP_PKEY_decrypt_init(ptr noundef nonnull %.2) #7
  br label %67

53:                                               ; preds = %42
  %54 = tail call i32 @EVP_PKEY_derive_init(ptr noundef nonnull %.2) #7
  br label %67

55:                                               ; preds = %42
  %56 = tail call i32 @EVP_PKEY_encapsulate_init(ptr noundef nonnull %.2, ptr noundef null) #7
  %57 = icmp sgt i32 %56, 0
  %58 = icmp ne ptr %9, null
  %or.cond = and i1 %58, %57
  br i1 %or.cond, label %59, label %67

59:                                               ; preds = %55
  %60 = tail call i32 @EVP_PKEY_CTX_set_kem_op(ptr noundef nonnull %.2, ptr noundef nonnull %9) #7
  br label %67

61:                                               ; preds = %42
  %62 = tail call i32 @EVP_PKEY_decapsulate_init(ptr noundef nonnull %.2, ptr noundef null) #7
  %63 = icmp sgt i32 %62, 0
  %64 = icmp ne ptr %9, null
  %or.cond3 = and i1 %64, %63
  br i1 %or.cond3, label %65, label %67

65:                                               ; preds = %61
  %66 = tail call i32 @EVP_PKEY_CTX_set_kem_op(ptr noundef nonnull %.2, ptr noundef nonnull %9) #7
  br label %67

67:                                               ; preds = %43, %45, %47, %49, %51, %53, %59, %55, %65, %61, %38, %40
  %.063 = phi i32 [ %41, %40 ], [ %39, %38 ], [ %66, %65 ], [ %62, %61 ], [ %60, %59 ], [ %56, %55 ], [ %54, %53 ], [ %52, %51 ], [ %50, %49 ], [ %48, %47 ], [ %46, %45 ], [ %44, %43 ]
  %68 = icmp slt i32 %.063, 1
  br i1 %68, label %.thread81, label %69

.thread81:                                        ; preds = %42, %37, %67
  tail call void @EVP_PKEY_CTX_free(ptr noundef nonnull %.2) #7
  br label %69

69:                                               ; preds = %24, %67, %.thread81, %.thread, %27
  %.167 = phi ptr [ null, %24 ], [ null, %27 ], [ null, %.thread ], [ null, %.thread81 ], [ %.2, %67 ]
  ret ptr %.167
}